target datalayout = "e-m:e-p270:32:32-p271:32:32-p272:64:64-i64:64-i128:128-f80:128-n8:16:32:64-S128"
target triple = "x86_64-pc-linux-gnu"

%struct._zend_executor_globals = type { %struct._zval_struct, %struct._zval_struct, [32 x ptr], ptr, ptr, %struct._zend_array, %struct._zend_array, ptr, i32, i8, %struct._zval_struct, i32, ptr, ptr, ptr, ptr, ptr, ptr, i64, ptr, ptr, i32, ptr, i32, i64, i32, i32, i32, i8, i8, %struct.zend_atomic_bool_s, %struct.zend_atomic_bool_s, ptr, i64, ptr, ptr, %struct._zend_array, %struct._zend_array, i32, i8, %struct._zval_struct, %struct._zval_struct, %struct._zend_stack, %struct._zend_stack, %struct._zend_stack, ptr, i32, i32, i64, ptr, ptr, ptr, %struct._zend_objects_store, %struct._zend_lazy_objects_store, ptr, ptr, ptr, [3 x %struct._zend_op], ptr, i8, i8, i64, i32, i32, ptr, [16 x %struct._HashTableIterator], ptr, %union._zend_function, %struct._zend_op, %struct._zend_array, i64, %struct.zend_get_gc_buffer, ptr, ptr, ptr, i64, i8, i32, ptr, ptr, i64, %struct._zend_call_stack, i64, i64, %struct._zend_strtod_state, [6 x ptr] }
%struct.zend_atomic_bool_s = type { i8 }
%struct._zval_struct = type { %union._zend_value, %union.anon, %union.anon.2 }
%union._zend_value = type { i64 }
%union.anon = type { i32 }
%union.anon.2 = type { i32 }
%struct._zend_stack = type { i32, i32, i32, ptr }
%struct._zend_objects_store = type { ptr, i32, i32, i32 }
%struct._zend_lazy_objects_store = type { %struct._zend_array }
%struct._HashTableIterator = type { ptr, i32, i32 }
%union._zend_function = type { %struct._zend_op_array }
%struct._zend_op_array = type { i8, [3 x i8], i32, ptr, ptr, ptr, i32, i32, ptr, ptr, ptr, ptr, i32, ptr, i32, i32, i32, ptr, ptr, ptr, ptr, ptr, i32, i32, ptr, ptr, ptr, i32, i32, i32, i32, ptr, ptr, [6 x ptr] }
%struct._zend_op = type { ptr, %union._znode_op, %union._znode_op, %union._znode_op, i32, i32, i8, i8, i8, i8 }
%union._znode_op = type { i32 }
%struct._zend_array = type { %struct._zend_refcounted_h, %union.anon.4, i32, %union.anon.6, i32, i32, i32, i32, i64, ptr }
%struct._zend_refcounted_h = type { i32, %union.anon.3 }
%union.anon.3 = type { i32 }
%union.anon.4 = type { i32 }
%union.anon.6 = type { ptr }
%struct.zend_get_gc_buffer = type { ptr, ptr, ptr }
%struct._zend_call_stack = type { ptr, i64 }
%struct._zend_strtod_state = type { [8 x ptr], ptr, ptr }
%struct._zend_object_handlers = type { i32, ptr, ptr, ptr, ptr, ptr, ptr, ptr, ptr, ptr, ptr, ptr, ptr, ptr, ptr, ptr, ptr, ptr, ptr, ptr, ptr, ptr, ptr, ptr, ptr }
%struct._zend_execute_data = type { ptr, ptr, ptr, ptr, %struct._zval_struct, ptr, ptr, ptr, ptr }
%struct._phar_archive_data = type { ptr, i32, ptr, i32, ptr, i32, [12 x i8], i64, %struct._zend_array, %struct._zend_array, %struct._zend_array, i32, i32, i32, ptr, ptr, i32, i32, i32, ptr, %struct._phar_metadata_tracker, i32, i16 }
%struct._phar_metadata_tracker = type { %struct._zval_struct, ptr }
%struct._zend_object = type { %struct._zend_refcounted_h, i32, i32, ptr, ptr, ptr, [1 x %struct._zval_struct] }

@executor_globals = external global %struct._zend_executor_globals, align 8
@.str.44 = private unnamed_addr constant [3 x i8] c"|l\00", align 1
@spl_ce_BadMethodCallException = external global ptr, align 8
@.str.72 = private unnamed_addr constant [51 x i8] c"Cannot call method on an uninitialized Phar object\00", align 1

; Function Attrs: alwaysinline nounwind uwtable
define internal i32 @zend_hash_num_elements(ptr noundef %0) #4 {
  %2 = alloca ptr, align 8
  store ptr %0, ptr %2, align 8, !tbaa !59
  %3 = load ptr, ptr %2, align 8, !tbaa !59
  %4 = getelementptr inbounds nuw %struct._zend_array, ptr %3, i32 0, i32 5
  %5 = load i32, ptr %4, align 4, !tbaa !95
  ret i32 %5
}

; Function Attrs: nounwind uwtable
define hidden void @zim_Phar_count(ptr noundef %0, ptr noundef %1) #0 {
  %3 = alloca ptr, align 8
  %4 = alloca ptr, align 8
  %5 = alloca i64, align 8
  %6 = alloca i32, align 4
  %7 = alloca ptr, align 8
  %8 = alloca ptr, align 8
  %9 = alloca ptr, align 8
  store ptr %0, ptr %3, align 8, !tbaa !4
  store ptr %1, ptr %4, align 8, !tbaa !9
  call void @llvm.lifetime.start.p0(i64 8, ptr %5) #17
  %10 = load ptr, ptr %3, align 8, !tbaa !4
  %11 = getelementptr inbounds nuw %struct._zend_execute_data, ptr %10, i32 0, i32 4
  %12 = getelementptr inbounds nuw %struct._zval_struct, ptr %11, i32 0, i32 2
  %13 = load i32, ptr %12, align 4, !tbaa !13
  %14 = call i32 (i32, ptr, ...) @zend_parse_parameters(i32 noundef %13, ptr noundef @.str.44, ptr noundef %5)
  %15 = icmp eq i32 %14, -1
  br i1 %15, label %16, label %22

16:                                               ; preds = %2
  br label %17

17:                                               ; preds = %16
  %18 = load ptr, ptr getelementptr inbounds nuw (%struct._zend_executor_globals, ptr @executor_globals, i32 0, i32 54), align 8, !tbaa !14
  %19 = icmp ne ptr %18, null
  call void @llvm.assume(i1 %19)
  store i32 1, ptr %6, align 4
  br label %67

20:                                               ; No predecessors!
  br label %21

21:                                               ; preds = %20
  br label %22

22:                                               ; preds = %21, %2
  call void @llvm.lifetime.start.p0(i64 8, ptr %7) #17
  %23 = load ptr, ptr %3, align 8, !tbaa !4
  %24 = getelementptr inbounds nuw %struct._zend_execute_data, ptr %23, i32 0, i32 4
  store ptr %24, ptr %7, align 8, !tbaa !9
  call void @llvm.lifetime.start.p0(i64 8, ptr %8) #17
  %25 = load ptr, ptr %7, align 8, !tbaa !9
  %26 = getelementptr inbounds nuw %struct._zval_struct, ptr %25, i32 0, i32 0
  %27 = load ptr, ptr %26, align 8, !tbaa !13
  %28 = load ptr, ptr %7, align 8, !tbaa !9
  %29 = getelementptr inbounds nuw %struct._zval_struct, ptr %28, i32 0, i32 0
  %30 = load ptr, ptr %29, align 8, !tbaa !13
  %31 = getelementptr inbounds nuw %struct._zend_object, ptr %30, i32 0, i32 4
  %32 = load ptr, ptr %31, align 8, !tbaa !118
  %33 = getelementptr inbounds nuw %struct._zend_object_handlers, ptr %32, i32 0, i32 0
  %34 = load i32, ptr %33, align 8, !tbaa !121
  %35 = sext i32 %34 to i64
  %36 = sub i64 0, %35
  %37 = getelementptr inbounds i8, ptr %27, i64 %36
  store ptr %37, ptr %8, align 8, !tbaa !123
  %38 = load ptr, ptr %8, align 8, !tbaa !123
  %39 = load ptr, ptr %38, align 8, !tbaa !13
  %40 = icmp ne ptr %39, null
  br i1 %40, label %49, label %41

41:                                               ; preds = %22
  %42 = load ptr, ptr @spl_ce_BadMethodCallException, align 8, !tbaa !53
  %43 = call ptr (ptr, i64, ptr, ...) @zend_throw_exception_ex(ptr noundef %42, i64 noundef 0, ptr noundef @.str.72)
  br label %44

44:                                               ; preds = %41
  %45 = load ptr, ptr getelementptr inbounds nuw (%struct._zend_executor_globals, ptr @executor_globals, i32 0, i32 54), align 8, !tbaa !14
  %46 = icmp ne ptr %45, null
  call void @llvm.assume(i1 %46)
  store i32 1, ptr %6, align 4
  br label %66

47:                                               ; No predecessors!
  br label %48

48:                                               ; preds = %47
  br label %49

49:                                               ; preds = %48, %22
  br label %50

50:                                               ; preds = %49
  br label %51

51:                                               ; preds = %50
  call void @llvm.lifetime.start.p0(i64 8, ptr %9) #17
  %52 = load ptr, ptr %4, align 8, !tbaa !9
  store ptr %52, ptr %9, align 8, !tbaa !9
  %53 = load ptr, ptr %8, align 8, !tbaa !123
  %54 = load ptr, ptr %53, align 8, !tbaa !13
  %55 = getelementptr inbounds nuw %struct._phar_archive_data, ptr %54, i32 0, i32 8
  %56 = call i32 @zend_hash_num_elements(ptr noundef %55)
  %57 = zext i32 %56 to i64
  %58 = load ptr, ptr %9, align 8, !tbaa !9
  %59 = getelementptr inbounds nuw %struct._zval_struct, ptr %58, i32 0, i32 0
  store i64 %57, ptr %59, align 8, !tbaa !13
  %60 = load ptr, ptr %9, align 8, !tbaa !9
  %61 = getelementptr inbounds nuw %struct._zval_struct, ptr %60, i32 0, i32 1
  store i32 4, ptr %61, align 8, !tbaa !13
  call void @llvm.lifetime.end.p0(i64 8, ptr %9) #17
  br label %62

62:                                               ; preds = %51
  br label %63

63:                                               ; preds = %62
  store i32 1, ptr %6, align 4
  br label %66

64:                                               ; No predecessors!
  br label %65

65:                                               ; preds = %64
  store i32 0, ptr %6, align 4
  br label %66

66:                                               ; preds = %65, %63, %44
  call void @llvm.lifetime.end.p0(i64 8, ptr %8) #17
  call void @llvm.lifetime.end.p0(i64 8, ptr %7) #17
  br label %67

67:                                               ; preds = %66, %17
  call void @llvm.lifetime.end.p0(i64 8, ptr %5) #17
  %68 = load i32, ptr %6, align 4
  switch i32 %68, label %70 [
    i32 0, label %69
    i32 1, label %69
  ]

69:                                               ; preds = %67, %67
  ret void

70:                                               ; preds = %67
  unreachable
}