; Function Attrs: nounwind uwtable
define hidden void @zim_Phar_count(ptr noundef readonly captures(none) %0, ptr noundef writeonly captures(none) %1) #0 {
  %3 = alloca i64, align 8
  call void @llvm.lifetime.start.p0(i64 8, ptr nonnull %3) #20
  %4 = getelementptr inbounds nuw i8, ptr %0, i64 44
  %5 = load i32, ptr %4, align 4, !tbaa !8
  %6 = call i32 (i32, ptr, ...) @zend_parse_parameters(i32 noundef %5, ptr noundef nonnull @.str.44, ptr noundef nonnull %3) #20
  %7 = icmp eq i32 %6, -1
  br i1 %7, label %8, label %11

8:                                                ; preds = %2
  %9 = load ptr, ptr getelementptr inbounds nuw (i8, ptr @executor_globals, i64 960), align 8, !tbaa !9
  %10 = icmp ne ptr %9, null
  call void @llvm.assume(i1 %10)
  br label %31

11:                                               ; preds = %2
  %12 = getelementptr inbounds nuw i8, ptr %0, i64 32
  %13 = load ptr, ptr %12, align 8, !tbaa !8
  %14 = getelementptr inbounds nuw i8, ptr %13, i64 24
  %15 = load ptr, ptr %14, align 8, !tbaa !109
  %16 = load i32, ptr %15, align 8, !tbaa !112
  %17 = sext i32 %16 to i64
  %18 = sub nsw i64 0, %17
  %19 = getelementptr inbounds i8, ptr %13, i64 %18
  %20 = load ptr, ptr %19, align 8, !tbaa !8
  %.not = icmp eq ptr %20, null
  br i1 %.not, label %21, label %26

21:                                               ; preds = %11
  %22 = load ptr, ptr @spl_ce_BadMethodCallException, align 8, !tbaa !54
  %23 = call ptr (ptr, i64, ptr, ...) @zend_throw_exception_ex(ptr noundef %22, i64 noundef 0, ptr noundef nonnull @.str.72) #20
  %24 = load ptr, ptr getelementptr inbounds nuw (i8, ptr @executor_globals, i64 960), align 8, !tbaa !9
  %25 = icmp ne ptr %24, null
  call void @llvm.assume(i1 %25)
  br label %31

26:                                               ; preds = %11
  %27 = getelementptr inbounds nuw i8, ptr %20, i64 92
  %28 = load i32, ptr %27, align 4, !tbaa !89
  %29 = zext i32 %28 to i64
  store i64 %29, ptr %1, align 8, !tbaa !8
  %30 = getelementptr inbounds nuw i8, ptr %1, i64 8
  store i32 4, ptr %30, align 8, !tbaa !8
  br label %31

31:                                               ; preds = %21, %26, %8
  call void @llvm.lifetime.end.p0(i64 8, ptr nonnull %3) #20
  ret void
}